; Function Attrs: mustprogress uwtable
define hidden void @_ZN5osgeo4proj3crs11VerticalCRSC1ERKS2_(ptr noundef nonnull align 8 dereferenceable(16) %0, ptr noundef nonnull align 8 dereferenceable(16) %1) unnamed_addr #6 align 2 personality ptr @__gxx_personality_v0 {
  %3 = getelementptr inbounds i8, ptr %0, i64 16
  %4 = load ptr, ptr %1, align 8
  %5 = getelementptr i8, ptr %4, i64 -24
  %6 = load i64, ptr %5, align 8
  %7 = getelementptr inbounds i8, ptr %1, i64 %6
  tail call void @_ZN5osgeo4proj3crs9SingleCRSC2ERKS2_(ptr noundef nonnull align 8 dereferenceable(72) %3, ptr noundef nonnull align 8 dereferenceable(72) %7)
  store ptr getelementptr inbounds inrange(-24, 64) ({ [11 x ptr], [15 x ptr], [5 x ptr], [5 x ptr], [5 x ptr] }, ptr @_ZTVN5osgeo4proj3crs11VerticalCRSE, i64 0, i32 0, i64 3), ptr %0, align 8
  store ptr getelementptr inbounds inrange(-72, 48) ({ [11 x ptr], [15 x ptr], [5 x ptr], [5 x ptr], [5 x ptr] }, ptr @_ZTVN5osgeo4proj3crs11VerticalCRSE, i64 0, i32 1, i64 9), ptr %3, align 8
  %8 = getelementptr inbounds i8, ptr %0, i64 32
  store ptr getelementptr inbounds inrange(-16, 24) ({ [11 x ptr], [15 x ptr], [5 x ptr], [5 x ptr], [5 x ptr] }, ptr @_ZTVN5osgeo4proj3crs11VerticalCRSE, i64 0, i32 2, i64 2), ptr %8, align 8
  %9 = getelementptr inbounds i8, ptr %0, i64 40
  store ptr getelementptr inbounds inrange(-16, 24) ({ [11 x ptr], [15 x ptr], [5 x ptr], [5 x ptr], [5 x ptr] }, ptr @_ZTVN5osgeo4proj3crs11VerticalCRSE, i64 0, i32 3, i64 2), ptr %9, align 8
  %10 = getelementptr inbounds i8, ptr %0, i64 64
  store ptr getelementptr inbounds inrange(-16, 24) ({ [11 x ptr], [15 x ptr], [5 x ptr], [5 x ptr], [5 x ptr] }, ptr @_ZTVN5osgeo4proj3crs11VerticalCRSE, i64 0, i32 4, i64 2), ptr %10, align 8
  %11 = getelementptr inbounds i8, ptr %1, i64 8
  %12 = load ptr, ptr %11, align 8
  tail call void @llvm.experimental.noalias.scope.decl(metadata !605)
  %13 = invoke noalias noundef nonnull dereferenceable(48) ptr @_Znwm(i64 noundef 48) #38
          to label %.noexc unwind label %18

.noexc:                                           ; preds = %2
  invoke void @_ZN5osgeo4proj3crs11VerticalCRS7PrivateC2ERKS3_(ptr noundef nonnull align 8 dereferenceable(48) %13, ptr noundef nonnull align 8 dereferenceable(48) %12)
          to label %16 unwind label %14, !noalias !605

14:                                               ; preds = %.noexc
  %15 = landingpad { ptr, i32 }
          cleanup
  tail call void @_ZdlPv(ptr noundef nonnull %13) #36, !noalias !605
  br label %.body

16:                                               ; preds = %.noexc
  %17 = getelementptr inbounds i8, ptr %0, i64 8
  store ptr %13, ptr %17, align 8, !alias.scope !605
  ret void

18:                                               ; preds = %2
  %19 = landingpad { ptr, i32 }
          cleanup
  br label %.body

.body:                                            ; preds = %14, %18
  %eh.lpad-body = phi { ptr, i32 } [ %19, %18 ], [ %15, %14 ]
  tail call void @_ZN5osgeo4proj2io21IPROJStringExportableD2Ev(ptr noundef nonnull align 8 dereferenceable(8) %0) #37
  tail call void @_ZN5osgeo4proj3crs9SingleCRSD2Ev(ptr noundef nonnull align 8 dereferenceable(72) %3) #37
  resume { ptr, i32 } %eh.lpad-body
}